target datalayout = "e-m:e-p270:32:32-p271:32:32-p272:64:64-i64:64-i128:128-f80:128-n8:16:32:64-S128"
target triple = "x86_64-unknown-linux-gnu"

%struct.UText = type { i32, i32, i32, i32, i64, i32, i32, i64, i32, i32, ptr, ptr, ptr, ptr, ptr, ptr, ptr, ptr, i64, i32, i32, i64, i32, i32 }

; Function Attrs: mustprogress nounwind uwtable
define internal noundef i64 @_ZL15ucstrTextLengthP5UText(ptr noundef %ut) #1 {
entry:
  %ut.addr = alloca ptr, align 8
  %str = alloca ptr, align 8
  store ptr %ut, ptr %ut.addr, align 8
  %0 = load ptr, ptr %ut.addr, align 8
  %a = getelementptr inbounds %struct.UText, ptr %0, i32 0, i32 18
  %1 = load i64, ptr %a, align 8
  %cmp = icmp slt i64 %1, 0
  br i1 %cmp, label %if.then, label %if.end9

if.then:                                          ; preds = %entry
  %2 = load ptr, ptr %ut.addr, align 8
  %context = getelementptr inbounds %struct.UText, ptr %2, i32 0, i32 13
  %3 = load ptr, ptr %context, align 8
  store ptr %3, ptr %str, align 8
  br label %for.cond

for.cond:                                         ; preds = %if.end, %if.then
  %4 = load ptr, ptr %str, align 8
  %5 = load ptr, ptr %ut.addr, align 8
  %chunkNativeLimit = getelementptr inbounds %struct.UText, ptr %5, i32 0, i32 4
  %6 = load i64, ptr %chunkNativeLimit, align 8
  %arrayidx = getelementptr inbounds i16, ptr %4, i64 %6
  %7 = load i16, ptr %arrayidx, align 2
  %conv = zext i16 %7 to i32
  %cmp1 = icmp eq i32 %conv, 0
  br i1 %cmp1, label %if.then2, label %if.end

if.then2:                                         ; preds = %for.cond
  br label %for.end

if.end:                                           ; preds = %for.cond
  %8 = load ptr, ptr %ut.addr, align 8
  %chunkNativeLimit3 = getelementptr inbounds %struct.UText, ptr %8, i32 0, i32 4
  %9 = load i64, ptr %chunkNativeLimit3, align 8
  %inc = add nsw i64 %9, 1
  store i64 %inc, ptr %chunkNativeLimit3, align 8
  br label %for.cond, !llvm.loop !21

for.end:                                          ; preds = %if.then2
  %10 = load ptr, ptr %ut.addr, align 8
  %chunkNativeLimit4 = getelementptr inbounds %struct.UText, ptr %10, i32 0, i32 4
  %11 = load i64, ptr %chunkNativeLimit4, align 8
  %12 = load ptr, ptr %ut.addr, align 8
  %a5 = getelementptr inbounds %struct.UText, ptr %12, i32 0, i32 18
  store i64 %11, ptr %a5, align 8
  %13 = load ptr, ptr %ut.addr, align 8
  %chunkNativeLimit6 = getelementptr inbounds %struct.UText, ptr %13, i32 0, i32 4
  %14 = load i64, ptr %chunkNativeLimit6, align 8
  %conv7 = trunc i64 %14 to i32
  %15 = load ptr, ptr %ut.addr, align 8
  %chunkLength = getelementptr inbounds %struct.UText, ptr %15, i32 0, i32 9
  store i32 %conv7, ptr %chunkLength, align 4
  %16 = load ptr, ptr %ut.addr, align 8
  %chunkLength8 = getelementptr inbounds %struct.UText, ptr %16, i32 0, i32 9
  %17 = load i32, ptr %chunkLength8, align 4
  %18 = load ptr, ptr %ut.addr, align 8
  %nativeIndexingLimit = getelementptr inbounds %struct.UText, ptr %18, i32 0, i32 6
  store i32 %17, ptr %nativeIndexingLimit, align 4
  %19 = load ptr, ptr %ut.addr, align 8
  %providerProperties = getelementptr inbounds %struct.UText, ptr %19, i32 0, i32 2
  %20 = load i32, ptr %providerProperties, align 8
  %and = and i32 %20, -3
  store i32 %and, ptr %providerProperties, align 8
  br label %if.end9

if.end9:                                          ; preds = %for.end, %entry
  %21 = load ptr, ptr %ut.addr, align 8
  %a10 = getelementptr inbounds %struct.UText, ptr %21, i32 0, i32 18
  %22 = load i64, ptr %a10, align 8
  ret i64 %22
}