; Function Attrs: mustprogress nofree norecurse nosync nounwind memory(read, argmem: readwrite, inaccessiblemem: none) uwtable
define internal noundef i64 @_ZL15ucstrTextLengthP5UText(ptr nocapture noundef %ut) #7 {
entry:
  %a = getelementptr inbounds i8, ptr %ut, i64 112
  %0 = load i64, ptr %a, align 8
  %cmp = icmp slt i64 %0, 0
  br i1 %cmp, label %if.then, label %if.end9

if.then:                                          ; preds = %entry
  %context = getelementptr inbounds i8, ptr %ut, i64 72
  %1 = load ptr, ptr %context, align 8
  %chunkNativeLimit = getelementptr inbounds i8, ptr %ut, i64 16
  %chunkNativeLimit.promoted = load i64, ptr %chunkNativeLimit, align 8
  %arrayidx12 = getelementptr inbounds i16, ptr %1, i64 %chunkNativeLimit.promoted
  %2 = load i16, ptr %arrayidx12, align 2
  %cmp113 = icmp eq i16 %2, 0
  br i1 %cmp113, label %for.end, label %if.end

if.end:                                           ; preds = %if.then, %if.end
  %3 = phi i64 [ %inc, %if.end ], [ %chunkNativeLimit.promoted, %if.then ]
  %inc = add nsw i64 %3, 1
  store i64 %inc, ptr %chunkNativeLimit, align 8
  %arrayidx = getelementptr inbounds i16, ptr %1, i64 %inc
  %4 = load i16, ptr %arrayidx, align 2
  %cmp1 = icmp eq i16 %4, 0
  br i1 %cmp1, label %for.end, label %if.end, !llvm.loop !20

for.end:                                          ; preds = %if.end, %if.then
  %.lcssa = phi i64 [ %chunkNativeLimit.promoted, %if.then ], [ %inc, %if.end ]
  store i64 %.lcssa, ptr %a, align 8
  %conv7 = trunc i64 %.lcssa to i32
  %chunkLength = getelementptr inbounds i8, ptr %ut, i64 44
  store i32 %conv7, ptr %chunkLength, align 4
  %nativeIndexingLimit = getelementptr inbounds i8, ptr %ut, i64 28
  store i32 %conv7, ptr %nativeIndexingLimit, align 4
  %providerProperties = getelementptr inbounds i8, ptr %ut, i64 8
  %5 = load i32, ptr %providerProperties, align 8
  %and = and i32 %5, -3
  store i32 %and, ptr %providerProperties, align 8
  br label %if.end9

if.end9:                                          ; preds = %for.end, %entry
  %6 = phi i64 [ %.lcssa, %for.end ], [ %0, %entry ]
  ret i64 %6
}